/apex/com.android.runtime/lib64/libart-compiler.so,_ZNK3art18OptimizingCompiler7CompileEPKNS_3dex8CodeItemEjNS_10InvokeTypeEtjNS_6HandleINS_6mirror11ClassLoaderEEERKNS_7DexFileENS6_INS7_8DexCacheEEE,_ZNK3art18OptimizingCompiler10JniCompileEjjRKNS_7DexFileENS_6HandleINS_6mirror8DexCacheEEE,_ZN3art5arm6429InstructionCodeGeneratorARM6413VisitNewArrayEPNS_9HNewArrayE,_ZN3art5arm6429InstructionCodeGeneratorARM6414VisitBoundTypeEPNS_10HBoundTypeE,_ZN3art28InstructionSimplifierVisitor35TryReplaceWithRotateConstantPatternEPNS_16HBinaryOperationEPNS_5HUShrEPNS_4HShlE,_ZN3art5arm6429InstructionCodeGeneratorARM6414VisitCheckCastEPNS_10HCheckCastE,_ZN3art5arm6429InstructionCodeGeneratorARM6418VisitLoadExceptionEPNS_14HLoadExceptionE,_ZN3art5arm6429InstructionCodeGeneratorARM6415VisitReturnVoidEPNS_11HReturnVoidE,_ZN3art19HInstructionBuilder19LookupQuickenedInfoEj,_ZN3art5arm6429InstructionCodeGeneratorARM6414HandleBinaryOpEPNS_16HBinaryOperationE,_ZN3art5arm6429InstructionCodeGeneratorARM6421VisitInstanceFieldGetEPNS_17HInstanceFieldGetE,_ZN3art5arm6429InstructionCodeGeneratorARM6419VisitTypeConversionEPNS_15HTypeConversionE,_ZN3art28InstructionSimplifierVisitor20TryReplaceWithRotateEPNS_16HBinaryOperationE,_ZN3art19HInstructionBuilder18BuildFillArrayDataERKNS_11InstructionEj,_ZN3art28InstructionSimplifierVisitor38TryReplaceWithRotateRegisterNegPatternEPNS_16HBinaryOperationEPNS_5HUShrEPNS_4HShlE,_ZN3art19HInstructionBuilder34BuildConstructorFenceForAllocationEPNS_12HInstructionE,_ZN3art5arm6429InstructionCodeGeneratorARM6413VisitArrayGetEPNS_9HArrayGetE,_ZN3art19HInstructionBuilder21ProcessDexInstructionERKNS_11InstructionEjm,_ZN3art19HInstructionBuilder24BuildInstanceFieldAccessERKNS_11InstructionEjbm,_ZN3art5arm6429InstructionCodeGeneratorARM648VisitMulEPNS_4HMulE,_ZN3art5arm6429InstructionCodeGeneratorARM6411VisitReturnEPNS_7HReturnE,_ZN3art5arm6429InstructionCodeGeneratorARM6414VisitLoadClassEPNS_10HLoadClassE,_ZN3art28InstructionSimplifierVisitor28TryDeMorganNegationFactoringEPNS_16HBinaryOperationE,_ZN3art5arm6429InstructionCodeGeneratorARM6416VisitClinitCheckEPNS_12HClinitCheckE,_ZN3art5arm6429InstructionCodeGeneratorARM6417VisitDivZeroCheckEPNS_13HDivZeroCheckE,_ZN3art19HInstructionBuilder16BuildArrayAccessERKNS_11InstructionEjbNS_8DataType4TypeE,_ZN3art28InstructionSimplifierVisitor43TryHandleAssociativeAndCommutativeOperationEPNS_16HBinaryOperationE,_ZN3art3arm31InstructionSimplifierArmVisitor26TryMergeIntoShifterOperandEPNS_12HInstructionES3_b,_ZN3art5arm6429InstructionCodeGeneratorARM6414HandleFieldSetEPNS_12HInstructionERKNS_9FieldInfoEb,_ZN3art5arm6429InstructionCodeGeneratorARM6416VisitNewInstanceEPNS_12HNewInstanceE,_ZN3art5arm6429InstructionCodeGeneratorARM6411HandleShiftEPNS_16HBinaryOperationE,_ZN3art5arm6429InstructionCodeGeneratorARM647VisitIfEPNS_3HIfE,_ZN3art5arm6429InstructionCodeGeneratorARM648VisitRemEPNS_4HRemE,_ZN3art19HInstructionBuilder14BuildLoadClassENS_3dex9TypeIndexERKNS_7DexFileENS_6HandleINS_6mirror5ClassEEEjb,_ZN3art5arm6429InstructionCodeGeneratorARM6410VisitThrowEPNS_6HThrowE,_ZN3art28InstructionSimplifierVisitor38TryReplaceWithRotateRegisterSubPatternEPNS_16HBinaryOperationEPNS_5HUShrEPNS_4HShlE,_ZN3art5arm6429InstructionCodeGeneratorARM6417VisitSuspendCheckEPNS_13HSuspendCheckE,_ZN3art5arm6429InstructionCodeGeneratorARM6414HandleFieldGetEPNS_12HInstructionERKNS_9FieldInfoE,_ZN3art5arm6429InstructionCodeGeneratorARM648VisitNegEPNS_4HNegE,_ZN3art5arm6429InstructionCodeGeneratorARM648VisitNotEPNS_4HNotE,_ZNK3art18OptimizingCompiler10TryCompileEPNS_14ArenaAllocatorEPNS_10ArenaStackEPNS_19CodeVectorAllocatorERKNS_18DexCompilationUnitEPNS_9ArtMethodEbbPNS_24VariableSizedHandleScopeE,_ZN3art5arm6429InstructionCodeGeneratorARM6413VisitArraySetEPNS_9HArraySetE,_ZN3art5arm6429InstructionCodeGeneratorARM6421VisitMonitorOperationEPNS_17HMonitorOperationE,_ZN3art5arm6429InstructionCodeGeneratorARM6419VisitClearExceptionEPNS_15HClearExceptionE,_ZN3art19HInstructionBuilder19BuildFilledNewArrayEjNS_3dex9TypeIndexERKNS_19InstructionOperandsE,_ZN3art19HInstructionBuilder15BuildLoadStringENS_3dex11StringIndexEj,_ZN3art19HInstructionBuilder14BuildTypeCheckERKNS_11InstructionEhhNS_3dex9TypeIndexEj,_ZN3art19HInstructionBuilder14Conversion_12xERKNS_11InstructionENS_8DataType4TypeES5_j,_ZN3art5arm6429InstructionCodeGeneratorARM6412VisitCompareEPNS_8HCompareE,_ZN3art5arm6429InstructionCodeGeneratorARM649VisitGotoEPNS_5HGotoE,_ZN3art5arm6429InstructionCodeGeneratorARM6421VisitInstanceFieldSetEPNS_17HInstanceFieldSetE,_ZN3art19HInstructionBuilder20LoadNullCheckedLocalEjj,_ZN3art5arm6429InstructionCodeGeneratorARM6414VisitNullCheckEPNS_10HNullCheckE,_ZN3art5arm6429InstructionCodeGeneratorARM649VisitExitEPNS_5HExitE,_ZN3art5arm6429InstructionCodeGeneratorARM6429VisitUnresolvedStaticFieldSetEPNS_25HUnresolvedStaticFieldSetE,_ZN3art19HInstructionBuilder11BuildSwitchERKNS_11InstructionEj,_ZN3art5arm6429InstructionCodeGeneratorARM6429VisitUnresolvedStaticFieldGetEPNS_25HUnresolvedStaticFieldGetE,_ZN3art5arm6429InstructionCodeGeneratorARM6415HandleConditionEPNS_10HConditionE,_ZN3art5arm6429InstructionCodeGeneratorARM648VisitDivEPNS_4HDivE,_ZN3art5arm6429InstructionCodeGeneratorARM6415VisitLoadStringEPNS_11HLoadStringE,_ZN3art19HInstructionBuilder11UpdateLocalEjPNS_12HInstructionE,_ZN3art28InstructionSimplifierVisitor31TryCombineVecMultiplyAccumulateEPNS_7HVecMulE,_ZN3art19HInstructionBuilder16BuildNewInstanceENS_3dex9TypeIndexEj,_ZN3art5arm6429InstructionCodeGeneratorARM6416VisitArrayLengthEPNS_12HArrayLengthE,_ZN3art19HInstructionBuilder11BuildInvokeERKNS_11InstructionEjjRKNS_19InstructionOperandsE,_ZN3art19HInstructionBuilder18BuildCheckedDivRemEttljNS_8DataType4TypeEbb,_ZN3art18OptimizingCompiler10JitCompileEPNS_6ThreadEPNS_3jit12JitCodeCacheEPNS_9ArtMethodEbbPNS3_9JitLoggerE,_ZN3art5arm6429InstructionCodeGeneratorARM6417VisitPackedSwitchEPNS_13HPackedSwitchE,_ZN3art28InstructionSimplifierVisitor33TrySubtractionChainSimplificationEPNS_16HBinaryOperationE,_ZN3art28InstructionSimplifierVisitor28TryMoveNegOnInputsAfterBinopEPNS_16HBinaryOperationE,_ZNK3art19HInstructionBuilder9LoadLocalEjNS_8DataType4TypeE,_ZN3art5arm6429InstructionCodeGeneratorARM6416VisitBoundsCheckEPNS_12HBoundsCheckE,_ZN3art5arm6429InstructionCodeGeneratorARM6421VisitConstructorFenceEPNS_17HConstructorFenceE,_ZN3art19HInstructionBuilder11BuildReturnERKNS_11InstructionENS_8DataType4TypeEj